; Function Attrs: mustprogress nounwind uwtable
define hidden void @_ZN5ceres8internal33SparseMatrixPreconditionerWrapperD0Ev(ptr noundef nonnull align 8 dereferenceable(88) %0) unnamed_addr #8 align 2 personality ptr @__gxx_personality_v0 {
  %2 = getelementptr inbounds nuw i8, ptr %0, i64 40
  %3 = load ptr, ptr %2, align 8, !tbaa !27
  %.not.i.i.i.i.i = icmp eq ptr %3, null
  br i1 %.not.i.i.i.i.i, label %_ZN5ceres8internal33SparseMatrixPreconditionerWrapperD2Ev.exit, label %4

4:                                                ; preds = %1
  %5 = getelementptr inbounds nuw i8, ptr %0, i64 56
  %6 = load ptr, ptr %5, align 8, !tbaa !29
  %7 = ptrtoint ptr %6 to i64
  %8 = ptrtoint ptr %3 to i64
  %9 = sub i64 %7, %8
  tail call void @_ZdlPvm(ptr noundef nonnull %3, i64 noundef %9) #20
  br label %_ZN5ceres8internal33SparseMatrixPreconditionerWrapperD2Ev.exit

_ZN5ceres8internal33SparseMatrixPreconditionerWrapperD2Ev.exit: ; preds = %1, %4
  tail call void @_ZN5ceres8internal14LinearOperatorD2Ev(ptr noundef nonnull align 8 dereferenceable(88) %0) #18
  tail call void @_ZdlPvm(ptr noundef nonnull %0, i64 noundef 88) #20
  ret void
}